; ModuleID = '11/214.c'
source_filename = "11/214.c"
target datalayout = "e-m:e-p270:32:32-p271:32:32-p272:64:64-i64:64-f80:128-n8:16:32:64-S128"
target triple = "x86_64-pc-linux-gnu"

@.str = private unnamed_addr constant [7 x i8] c"%d%d%d\00", align 1
@main.days = internal global [13 x i32] [i32 0, i32 31, i32 28, i32 31, i32 30, i32 31, i32 30, i32 31, i32 31, i32 30, i32 31, i32 30, i32 31], align 16
@.str.1 = private unnamed_addr constant [4 x i8] c"%d\0A\00", align 1

; Function Attrs: noinline nounwind uwtable
define dso_local i32 @main(i32 %0, i8** %1) #0 {
  %3 = alloca i32, align 4
  %4 = alloca i32, align 4
  %5 = alloca i8**, align 8
  %6 = alloca i32, align 4
  %7 = alloca i32, align 4
  %8 = alloca i32, align 4
  %9 = alloca i32, align 4
  %10 = alloca i32, align 4
  store i32 0, i32* %3, align 4
  store i32 %0, i32* %4, align 4
  store i8** %1, i8*** %5, align 8
  %11 = call i32 (i8*, ...) @__isoc99_scanf(i8* getelementptr inbounds ([7 x i8], [7 x i8]* @.str, i64 0, i64 0), i32* %6, i32* %7, i32* %8)
  store i32 0, i32* %9, align 4
  store i32 0, i32* %10, align 4
  br label %12

12:                                               ; preds = %23, %2
  %13 = load i32, i32* %10, align 4
  %14 = load i32, i32* %7, align 4
  %15 = icmp slt i32 %13, %14
  br i1 %15, label %16, label %26

16:                                               ; preds = %12
  %17 = load i32, i32* %10, align 4
  %18 = sext i32 %17 to i64
  %19 = getelementptr inbounds [13 x i32], [13 x i32]* @main.days, i64 0, i64 %18
  %20 = load i32, i32* %19, align 4
  %21 = load i32, i32* %9, align 4
  %22 = add nsw i32 %20, %21
  store i32 %22, i32* %9, align 4
  br label %23

23:                                               ; preds = %16
  %24 = load i32, i32* %10, align 4
  %25 = add nsw i32 %24, 1
  store i32 %25, i32* %10, align 4
  br label %12

26:                                               ; preds = %12
  %27 = load i32, i32* %8, align 4
  %28 = load i32, i32* %9, align 4
  %29 = add nsw i32 %27, %28
  store i32 %29, i32* %9, align 4
  %30 = load i32, i32* %6, align 4
  %31 = srem i32 %30, 100
  %32 = icmp eq i32 %31, 0
  br i1 %32, label %33, label %37

33:                                               ; preds = %26
  %34 = load i32, i32* %6, align 4
  %35 = srem i32 %34, 400
  %36 = icmp eq i32 %35, 0
  br i1 %36, label %45, label %37

37:                                               ; preds = %33, %26
  %38 = load i32, i32* %6, align 4
  %39 = srem i32 %38, 100
  %40 = icmp ne i32 %39, 0
  br i1 %40, label %41, label %48

41:                                               ; preds = %37
  %42 = load i32, i32* %6, align 4
  %43 = srem i32 %42, 4
  %44 = icmp eq i32 %43, 0
  br i1 %44, label %45, label %48

45:                                               ; preds = %41, %33
  %46 = load i32, i32* %9, align 4
  %47 = add nsw i32 %46, 1
  store i32 %47, i32* %9, align 4
  br label %48

48:                                               ; preds = %45, %41, %37
  %49 = load i32, i32* %9, align 4
  %50 = call i32 (i8*, ...) @printf(i8* getelementptr inbounds ([4 x i8], [4 x i8]* @.str.1, i64 0, i64 0), i32 %49)
  ret i32 0
}

declare dso_local i32 @__isoc99_scanf(i8*, ...) #1

declare dso_local i32 @printf(i8*, ...) #1


!llvm.module.flags = !{!0}
!llvm.ident = !{!1}

!0 = !{i32 1, !"wchar_size", i32 4}
!1 = !{!"clang version 10.0.0-4ubuntu1 "}
